target datalayout = "e-m:e-p270:32:32-p271:32:32-p272:64:64-i64:64-i128:128-f80:128-n8:16:32:64-S128"
target triple = "x86_64-pc-linux-gnu"

%struct.UText = type { i32, i32, i32, i32, i64, i32, i32, i64, i32, i32, ptr, ptr, ptr, ptr, ptr, ptr, ptr, ptr, i64, i32, i32, i64, i32, i32 }

; Function Attrs: mustprogress uwtable
define void @ubrk_setText_77(ptr noundef %0, ptr noundef %1, i32 noundef %2, ptr noundef %3) #0 {
  %5 = alloca ptr, align 8
  %6 = alloca ptr, align 8
  %7 = alloca i32, align 4
  %8 = alloca ptr, align 8
  %9 = alloca %struct.UText, align 8
  store ptr %0, ptr %5, align 8, !tbaa !19
  store ptr %1, ptr %6, align 8, !tbaa !10
  store i32 %2, ptr %7, align 4, !tbaa !12
  store ptr %3, ptr %8, align 8, !tbaa !14
  call void @llvm.lifetime.start.p0(i64 144, ptr %9) #9
  call void @llvm.memset.p0.i64(ptr align 8 %9, i8 0, i64 144, i1 false)
  %10 = getelementptr inbounds %struct.UText, ptr %9, i32 0, i32 0
  store i32 878368812, ptr %10, align 8
  %11 = getelementptr inbounds %struct.UText, ptr %9, i32 0, i32 3
  store i32 144, ptr %11, align 4
  %12 = load ptr, ptr %6, align 8, !tbaa !10
  %13 = load i32, ptr %7, align 4, !tbaa !12
  %14 = sext i32 %13 to i64
  %15 = load ptr, ptr %8, align 8, !tbaa !14
  %16 = call ptr @utext_openUChars_77(ptr noundef %9, ptr noundef %12, i64 noundef %14, ptr noundef %15)
  %17 = load ptr, ptr %5, align 8, !tbaa !19
  %18 = load ptr, ptr %8, align 8, !tbaa !14
  %19 = load ptr, ptr %17, align 8, !tbaa !21
  %20 = getelementptr inbounds ptr, ptr %19, i64 8
  %21 = load ptr, ptr %20, align 8
  call void %21(ptr noundef nonnull align 8 dereferenceable(32) %17, ptr noundef %9, ptr noundef nonnull align 4 dereferenceable(4) %18)
  call void @llvm.lifetime.end.p0(i64 144, ptr %9) #9
  ret void
}