; Function Attrs: mustprogress uwtable
define void @ubrk_setText_77(ptr noundef %0, ptr noundef %1, i32 noundef %2, ptr noundef %3) local_unnamed_addr #0 {
  %5 = alloca %struct.UText, align 8
  call void @llvm.lifetime.start.p0(i64 144, ptr nonnull %5) #8
  call void @llvm.memset.p0.i64(ptr noundef nonnull align 8 dereferenceable(144) %5, i8 0, i64 144, i1 false)
  store i32 878368812, ptr %5, align 8
  %6 = getelementptr inbounds nuw i8, ptr %5, i64 12
  store i32 144, ptr %6, align 4
  %7 = sext i32 %2 to i64
  %8 = call ptr @utext_openUChars_77(ptr noundef nonnull %5, ptr noundef %1, i64 noundef %7, ptr noundef %3)
  %9 = load ptr, ptr %0, align 8, !tbaa !7
  %10 = getelementptr inbounds nuw i8, ptr %9, i64 64
  %11 = load ptr, ptr %10, align 8
  call void %11(ptr noundef nonnull align 8 dereferenceable(32) %0, ptr noundef nonnull %5, ptr noundef nonnull align 4 dereferenceable(4) %3)
  call void @llvm.lifetime.end.p0(i64 144, ptr nonnull %5) #8
  ret void
}